target datalayout = "e-m:e-p270:32:32-p271:32:32-p272:64:64-i64:64-i128:128-f80:128-n8:16:32:64-S128"
target triple = "x86_64-pc-linux-gnu"

%"class.osgeo::proj::util::BaseObject" = type { ptr, %"class.std::unique_ptr.2" }
%"class.std::unique_ptr.2" = type { %"struct.std::__uniq_ptr_data.3" }
%"struct.std::__uniq_ptr_data.3" = type { %"class.std::__uniq_ptr_impl.4" }
%"class.std::__uniq_ptr_impl.4" = type { %"class.std::tuple.5" }
%"class.std::tuple.5" = type { %"struct.std::_Tuple_impl.6" }
%"struct.std::_Tuple_impl.6" = type { %"struct.std::_Head_base.9" }
%"struct.std::_Head_base.9" = type { ptr }
%"class.osgeo::proj::operation::Conversion" = type { %"class.osgeo::proj::operation::SingleOperation.base", %"class.std::unique_ptr.34", %"class.osgeo::proj::operation::CoordinateOperation" }
%"class.osgeo::proj::operation::SingleOperation.base" = type { ptr, %"class.std::unique_ptr" }
%"class.std::unique_ptr" = type { %"struct.std::__uniq_ptr_data" }
%"struct.std::__uniq_ptr_data" = type { %"class.std::__uniq_ptr_impl" }
%"class.std::__uniq_ptr_impl" = type { %"class.std::tuple" }
%"class.std::tuple" = type { %"struct.std::_Tuple_impl" }
%"struct.std::_Tuple_impl" = type { %"struct.std::_Head_base.1" }
%"struct.std::_Head_base.1" = type { ptr }
%"class.std::unique_ptr.34" = type { %"struct.std::__uniq_ptr_data.35" }
%"struct.std::__uniq_ptr_data.35" = type { %"class.std::__uniq_ptr_impl.36" }
%"class.std::__uniq_ptr_impl.36" = type { %"class.std::tuple.37" }
%"class.std::tuple.37" = type { %"struct.std::_Tuple_impl.38" }
%"struct.std::_Tuple_impl.38" = type { %"struct.std::_Head_base.41" }
%"struct.std::_Head_base.41" = type { ptr }
%"class.osgeo::proj::operation::CoordinateOperation" = type { %"class.osgeo::proj::common::ObjectUsage", %"class.osgeo::proj::io::IPROJStringExportable", %"class.osgeo::proj::io::IJSONExportable", %"class.std::unique_ptr.26" }
%"class.osgeo::proj::common::ObjectUsage" = type { %"class.osgeo::proj::common::IdentifiedObject", %"class.std::unique_ptr.18" }
%"class.osgeo::proj::common::IdentifiedObject" = type { %"class.osgeo::proj::util::BaseObject", %"class.osgeo::proj::util::IComparable", %"class.osgeo::proj::io::IWKTExportable", %"class.std::unique_ptr.10" }
%"class.osgeo::proj::util::IComparable" = type { ptr }
%"class.osgeo::proj::io::IWKTExportable" = type { ptr }
%"class.std::unique_ptr.10" = type { %"struct.std::__uniq_ptr_data.11" }
%"struct.std::__uniq_ptr_data.11" = type { %"class.std::__uniq_ptr_impl.12" }
%"class.std::__uniq_ptr_impl.12" = type { %"class.std::tuple.13" }
%"class.std::tuple.13" = type { %"struct.std::_Tuple_impl.14" }
%"struct.std::_Tuple_impl.14" = type { %"struct.std::_Head_base.17" }
%"struct.std::_Head_base.17" = type { ptr }
%"class.std::unique_ptr.18" = type { %"struct.std::__uniq_ptr_data.19" }
%"struct.std::__uniq_ptr_data.19" = type { %"class.std::__uniq_ptr_impl.20" }
%"class.std::__uniq_ptr_impl.20" = type { %"class.std::tuple.21" }
%"class.std::tuple.21" = type { %"struct.std::_Tuple_impl.22" }
%"struct.std::_Tuple_impl.22" = type { %"struct.std::_Head_base.25" }
%"struct.std::_Head_base.25" = type { ptr }
%"class.osgeo::proj::io::IPROJStringExportable" = type { ptr }
%"class.osgeo::proj::io::IJSONExportable" = type { ptr }
%"class.std::unique_ptr.26" = type { %"struct.std::__uniq_ptr_data.27" }
%"struct.std::__uniq_ptr_data.27" = type { %"class.std::__uniq_ptr_impl.28" }
%"class.std::__uniq_ptr_impl.28" = type { %"class.std::tuple.29" }
%"class.std::tuple.29" = type { %"struct.std::_Tuple_impl.30" }
%"struct.std::_Tuple_impl.30" = type { %"struct.std::_Head_base.33" }
%"struct.std::_Head_base.33" = type { ptr }

; Function Attrs: mustprogress nounwind uwtable
define linkonce_odr hidden void @_ZNSt10_Head_baseILm1ESt14default_deleteIN5osgeo4proj9operation10Conversion7PrivateEELb1EEC2Ev(ptr noundef nonnull align 1 dereferenceable(1) %0) unnamed_addr #2 comdat align 2 {
  %2 = alloca ptr, align 8
  store ptr %0, ptr %2, align 8, !tbaa !300
  ret void
}

; Function Attrs: mustprogress nounwind uwtable
define linkonce_odr hidden void @_ZNSt10_Head_baseILm0EPN5osgeo4proj9operation10Conversion7PrivateELb0EEC2Ev(ptr noundef nonnull align 8 dereferenceable(8) %0) unnamed_addr #2 comdat align 2 {
  %2 = alloca ptr, align 8
  store ptr %0, ptr %2, align 8, !tbaa !296
  %3 = load ptr, ptr %2, align 8
  %4 = getelementptr inbounds nuw %"struct.std::_Head_base.41", ptr %3, i32 0, i32 0
  store ptr null, ptr %4, align 8, !tbaa !298
  ret void
}

; Function Attrs: mustprogress uwtable
define linkonce_odr hidden void @_ZNSt11_Tuple_implILm1EJSt14default_deleteIN5osgeo4proj9operation10Conversion7PrivateEEEEC2Ev(ptr noundef nonnull align 1 dereferenceable(1) %0) unnamed_addr #0 comdat align 2 {
  %2 = alloca ptr, align 8
  store ptr %0, ptr %2, align 8, !tbaa !294
  %3 = load ptr, ptr %2, align 8
  call void @_ZNSt10_Head_baseILm1ESt14default_deleteIN5osgeo4proj9operation10Conversion7PrivateEELb1EEC2Ev(ptr noundef nonnull align 1 dereferenceable(1) %3)
  ret void
}

; Function Attrs: noinline noreturn nounwind uwtable
define linkonce_odr hidden void @__clang_call_terminate(ptr noundef %0) #15 comdat {
  %2 = call ptr @__cxa_begin_catch(ptr %0) #24
  call void @_ZSt9terminatev() #25
  unreachable
}

; Function Attrs: mustprogress uwtable
define linkonce_odr hidden void @_ZNSt11_Tuple_implILm0EJPN5osgeo4proj9operation10Conversion7PrivateESt14default_deleteIS4_EEEC2Ev(ptr noundef nonnull align 8 dereferenceable(8) %0) unnamed_addr #0 comdat align 2 {
  %2 = alloca ptr, align 8
  store ptr %0, ptr %2, align 8, !tbaa !292
  %3 = load ptr, ptr %2, align 8
  call void @_ZNSt11_Tuple_implILm1EJSt14default_deleteIN5osgeo4proj9operation10Conversion7PrivateEEEEC2Ev(ptr noundef nonnull align 1 dereferenceable(1) %3)
  call void @_ZNSt10_Head_baseILm0EPN5osgeo4proj9operation10Conversion7PrivateELb0EEC2Ev(ptr noundef nonnull align 8 dereferenceable(8) %3)
  ret void
}

; Function Attrs: mustprogress nounwind uwtable
define linkonce_odr hidden void @_ZNSt5tupleIJPN5osgeo4proj9operation10Conversion7PrivateESt14default_deleteIS4_EEEC2ILb1ETnNSt9enable_ifIXclsr17_TupleConstraintsIXT_ES5_S7_EE37__is_implicitly_default_constructibleEEbE4typeELb1EEEv(ptr noundef nonnull align 8 dereferenceable(8) %0) unnamed_addr #2 comdat align 2 personality ptr @__gxx_personality_v0 {
  %2 = alloca ptr, align 8
  store ptr %0, ptr %2, align 8, !tbaa !290
  %3 = load ptr, ptr %2, align 8
  invoke void @_ZNSt11_Tuple_implILm0EJPN5osgeo4proj9operation10Conversion7PrivateESt14default_deleteIS4_EEEC2Ev(ptr noundef nonnull align 8 dereferenceable(8) %3)
          to label %4 unwind label %5

4:                                                ; preds = %1
  ret void

5:                                                ; preds = %1
  %6 = landingpad { ptr, i32 }
          catch ptr null
  %7 = extractvalue { ptr, i32 } %6, 0
  call void @__clang_call_terminate(ptr %7) #25
  unreachable
}

; Function Attrs: mustprogress nounwind uwtable
define linkonce_odr hidden void @_ZNSt15__uniq_ptr_implIN5osgeo4proj9operation10Conversion7PrivateESt14default_deleteIS4_EEC2Ev(ptr noundef nonnull align 8 dereferenceable(8) %0) unnamed_addr #2 comdat align 2 {
  %2 = alloca ptr, align 8
  store ptr %0, ptr %2, align 8, !tbaa !288
  %3 = load ptr, ptr %2, align 8
  %4 = getelementptr inbounds nuw %"class.std::__uniq_ptr_impl.36", ptr %3, i32 0, i32 0
  call void @_ZNSt5tupleIJPN5osgeo4proj9operation10Conversion7PrivateESt14default_deleteIS4_EEEC2ILb1ETnNSt9enable_ifIXclsr17_TupleConstraintsIXT_ES5_S7_EE37__is_implicitly_default_constructibleEEbE4typeELb1EEEv(ptr noundef nonnull align 8 dereferenceable(8) %4) #24
  ret void
}

; Function Attrs: inlinehint mustprogress nounwind uwtable
define linkonce_odr hidden void @_ZNSt15__uniq_ptr_dataIN5osgeo4proj9operation10Conversion7PrivateESt14default_deleteIS4_ELb1ELb1EEC2Ev(ptr noundef nonnull align 8 dereferenceable(8) %0) unnamed_addr #7 comdat align 2 {
  %2 = alloca ptr, align 8
  store ptr %0, ptr %2, align 8, !tbaa !286
  %3 = load ptr, ptr %2, align 8
  call void @_ZNSt15__uniq_ptr_implIN5osgeo4proj9operation10Conversion7PrivateESt14default_deleteIS4_EEC2Ev(ptr noundef nonnull align 8 dereferenceable(8) %3) #24
  ret void
}

; Function Attrs: mustprogress nounwind uwtable
define linkonce_odr hidden void @_ZNSt10unique_ptrIN5osgeo4proj9operation10Conversion7PrivateESt14default_deleteIS4_EEC2IS6_vEEDn(ptr noundef nonnull align 8 dereferenceable(8) %0, ptr %1) unnamed_addr #2 comdat align 2 {
  %3 = alloca ptr, align 8
  %4 = alloca ptr, align 8
  store ptr %0, ptr %3, align 8, !tbaa !16
  store ptr %1, ptr %4, align 8, !tbaa !18
  %5 = load ptr, ptr %3, align 8
  %6 = getelementptr inbounds nuw %"class.std::unique_ptr.34", ptr %5, i32 0, i32 0
  call void @llvm.memset.p0.i64(ptr align 8 %6, i8 0, i64 8, i1 false)
  call void @_ZNSt15__uniq_ptr_dataIN5osgeo4proj9operation10Conversion7PrivateESt14default_deleteIS4_ELb1ELb1EEC2Ev(ptr noundef nonnull align 8 dereferenceable(8) %6) #24
  ret void
}

; Function Attrs: mustprogress uwtable
define hidden void @_ZN5osgeo4proj9operation10ConversionC1ERKS2_(ptr noundef nonnull align 8 dereferenceable(24) %0, ptr noundef nonnull align 8 dereferenceable(24) %1) unnamed_addr #0 align 2 personality ptr @__gxx_personality_v0 {
  %3 = alloca ptr, align 8
  %4 = alloca ptr, align 8
  %5 = alloca ptr, align 8
  %6 = alloca i32, align 4
  store ptr %0, ptr %3, align 8, !tbaa !3
  store ptr %1, ptr %4, align 8, !tbaa !3
  %7 = load ptr, ptr %3, align 8
  %8 = getelementptr inbounds i8, ptr %7, i64 24
  %9 = load ptr, ptr %4, align 8, !tbaa !3
  %10 = load ptr, ptr %9, align 8, !tbaa !14
  %11 = getelementptr i8, ptr %10, i64 -24
  %12 = load i64, ptr %11, align 8
  %13 = getelementptr inbounds i8, ptr %9, i64 %12
  call void @_ZN5osgeo4proj9operation19CoordinateOperationC2ERKS2_(ptr noundef nonnull align 8 dereferenceable(72) %8, ptr noundef nonnull align 8 dereferenceable(72) %13)
  %14 = load ptr, ptr %4, align 8, !tbaa !3
  invoke void @_ZN5osgeo4proj9operation15SingleOperationC2ERKS2_(ptr noundef nonnull align 8 dereferenceable(16) %7, ptr noundef getelementptr inbounds ([12 x ptr], ptr @_ZTTN5osgeo4proj9operation10ConversionE, i64 0, i64 1), ptr noundef nonnull align 8 dereferenceable(16) %14)
          to label %15 unwind label %22

15:                                               ; preds = %2
  store ptr getelementptr inbounds inrange(-24, 72) ({ [12 x ptr], [18 x ptr], [5 x ptr], [5 x ptr], [5 x ptr], [5 x ptr] }, ptr @_ZTVN5osgeo4proj9operation10ConversionE, i32 0, i32 0, i32 3), ptr %7, align 8, !tbaa !14
  %16 = getelementptr inbounds i8, ptr %7, i64 24
  store ptr getelementptr inbounds inrange(-88, 56) ({ [12 x ptr], [18 x ptr], [5 x ptr], [5 x ptr], [5 x ptr], [5 x ptr] }, ptr @_ZTVN5osgeo4proj9operation10ConversionE, i32 0, i32 1, i32 11), ptr %16, align 8, !tbaa !14
  %17 = getelementptr inbounds i8, ptr %7, i64 40
  store ptr getelementptr inbounds inrange(-16, 24) ({ [12 x ptr], [18 x ptr], [5 x ptr], [5 x ptr], [5 x ptr], [5 x ptr] }, ptr @_ZTVN5osgeo4proj9operation10ConversionE, i32 0, i32 2, i32 2), ptr %17, align 8, !tbaa !14
  %18 = getelementptr inbounds i8, ptr %7, i64 48
  store ptr getelementptr inbounds inrange(-16, 24) ({ [12 x ptr], [18 x ptr], [5 x ptr], [5 x ptr], [5 x ptr], [5 x ptr] }, ptr @_ZTVN5osgeo4proj9operation10ConversionE, i32 0, i32 3, i32 2), ptr %18, align 8, !tbaa !14
  %19 = getelementptr inbounds i8, ptr %7, i64 72
  store ptr getelementptr inbounds inrange(-16, 24) ({ [12 x ptr], [18 x ptr], [5 x ptr], [5 x ptr], [5 x ptr], [5 x ptr] }, ptr @_ZTVN5osgeo4proj9operation10ConversionE, i32 0, i32 4, i32 2), ptr %19, align 8, !tbaa !14
  %20 = getelementptr inbounds i8, ptr %7, i64 80
  store ptr getelementptr inbounds inrange(-16, 24) ({ [12 x ptr], [18 x ptr], [5 x ptr], [5 x ptr], [5 x ptr], [5 x ptr] }, ptr @_ZTVN5osgeo4proj9operation10ConversionE, i32 0, i32 5, i32 2), ptr %20, align 8, !tbaa !14
  %21 = getelementptr inbounds nuw %"class.osgeo::proj::operation::Conversion", ptr %7, i32 0, i32 1
  call void @_ZNSt10unique_ptrIN5osgeo4proj9operation10Conversion7PrivateESt14default_deleteIS4_EEC2IS6_vEEDn(ptr noundef nonnull align 8 dereferenceable(8) %21, ptr null) #24
  ret void

22:                                               ; preds = %2
  %23 = landingpad { ptr, i32 }
          cleanup
  %24 = extractvalue { ptr, i32 } %23, 0
  store ptr %24, ptr %5, align 8
  %25 = extractvalue { ptr, i32 } %23, 1
  store i32 %25, ptr %6, align 4
  %26 = getelementptr inbounds i8, ptr %7, i64 24
  call void @_ZN5osgeo4proj9operation19CoordinateOperationD2Ev(ptr noundef nonnull align 8 dereferenceable(72) %26) #24
  br label %27

27:                                               ; preds = %22
  %28 = load ptr, ptr %5, align 8
  %29 = load i32, ptr %6, align 4
  %30 = insertvalue { ptr, i32 } poison, ptr %28, 0
  %31 = insertvalue { ptr, i32 } %30, i32 %29, 1
  resume { ptr, i32 } %31
}