; Function Attrs: mustprogress uwtable
define hidden void @_ZN5osgeo4proj9operation10ConversionC1ERKS2_(ptr noundef nonnull align 8 dereferenceable(24) %0, ptr noundef nonnull align 8 dereferenceable(24) %1) unnamed_addr #0 align 2 personality ptr @__gxx_personality_v0 {
  %3 = getelementptr inbounds nuw i8, ptr %0, i64 24
  %4 = load ptr, ptr %1, align 8, !tbaa !3
  %5 = getelementptr i8, ptr %4, i64 -24
  %6 = load i64, ptr %5, align 8
  %7 = getelementptr inbounds i8, ptr %1, i64 %6
  tail call void @_ZN5osgeo4proj9operation19CoordinateOperationC2ERKS2_(ptr noundef nonnull align 8 dereferenceable(72) %3, ptr noundef nonnull align 8 dereferenceable(72) %7)
  invoke void @_ZN5osgeo4proj9operation15SingleOperationC2ERKS2_(ptr noundef nonnull align 8 dereferenceable(16) %0, ptr noundef nonnull getelementptr inbounds nuw (i8, ptr @_ZTTN5osgeo4proj9operation10ConversionE, i64 8), ptr noundef nonnull align 8 dereferenceable(16) %1)
          to label %8 unwind label %14

8:                                                ; preds = %2
  store ptr getelementptr inbounds nuw inrange(-24, 72) (i8, ptr @_ZTVN5osgeo4proj9operation10ConversionE, i64 24), ptr %0, align 8, !tbaa !3
  store ptr getelementptr inbounds nuw inrange(-88, 56) (i8, ptr @_ZTVN5osgeo4proj9operation10ConversionE, i64 184), ptr %3, align 8, !tbaa !3
  %9 = getelementptr inbounds nuw i8, ptr %0, i64 40
  store ptr getelementptr inbounds nuw inrange(-16, 24) (i8, ptr @_ZTVN5osgeo4proj9operation10ConversionE, i64 256), ptr %9, align 8, !tbaa !3
  %10 = getelementptr inbounds nuw i8, ptr %0, i64 48
  store ptr getelementptr inbounds nuw inrange(-16, 24) (i8, ptr @_ZTVN5osgeo4proj9operation10ConversionE, i64 296), ptr %10, align 8, !tbaa !3
  %11 = getelementptr inbounds nuw i8, ptr %0, i64 72
  store ptr getelementptr inbounds nuw inrange(-16, 24) (i8, ptr @_ZTVN5osgeo4proj9operation10ConversionE, i64 336), ptr %11, align 8, !tbaa !3
  %12 = getelementptr inbounds nuw i8, ptr %0, i64 80
  store ptr getelementptr inbounds nuw inrange(-16, 24) (i8, ptr @_ZTVN5osgeo4proj9operation10ConversionE, i64 376), ptr %12, align 8, !tbaa !3
  %13 = getelementptr inbounds nuw i8, ptr %0, i64 16
  store ptr null, ptr %13, align 8, !tbaa !6
  ret void

14:                                               ; preds = %2
  %15 = landingpad { ptr, i32 }
          cleanup
  tail call void @_ZN5osgeo4proj9operation19CoordinateOperationD2Ev(ptr noundef nonnull align 8 dereferenceable(72) %3) #32
  resume { ptr, i32 } %15
}